target datalayout = "e-m:e-p270:32:32-p271:32:32-p272:64:64-i64:64-i128:128-f80:128-n8:16:32:64-S128"
target triple = "x86_64-pc-linux-gnu"

; Function Attrs: mustprogress nounwind uwtable
define void @_Z21make_tric_corr_matrixiPA3_KfPA3_f(i32 noundef %0, ptr noundef %1, ptr noundef %2) #3 {
  %4 = alloca i32, align 4
  %5 = alloca ptr, align 8
  %6 = alloca ptr, align 8
  store i32 %0, ptr %4, align 4, !tbaa !4
  store ptr %1, ptr %5, align 8, !tbaa !66
  store ptr %2, ptr %6, align 8, !tbaa !66
  %7 = load i32, ptr %4, align 4, !tbaa !4
  %8 = icmp slt i32 1, %7
  br i1 %8, label %9, label %23

9:                                                ; preds = %3
  %10 = load ptr, ptr %5, align 8, !tbaa !66
  %11 = getelementptr inbounds [3 x float], ptr %10, i64 1
  %12 = getelementptr inbounds [3 x float], ptr %11, i64 0, i64 0
  %13 = load float, ptr %12, align 4, !tbaa !68
  %14 = fneg float %13
  %15 = load ptr, ptr %5, align 8, !tbaa !66
  %16 = getelementptr inbounds [3 x float], ptr %15, i64 1
  %17 = getelementptr inbounds [3 x float], ptr %16, i64 0, i64 1
  %18 = load float, ptr %17, align 4, !tbaa !68
  %19 = fdiv float %14, %18
  %20 = load ptr, ptr %6, align 8, !tbaa !66
  %21 = getelementptr inbounds [3 x float], ptr %20, i64 1
  %22 = getelementptr inbounds [3 x float], ptr %21, i64 0, i64 0
  store float %19, ptr %22, align 4, !tbaa !68
  br label %27

23:                                               ; preds = %3
  %24 = load ptr, ptr %6, align 8, !tbaa !66
  %25 = getelementptr inbounds [3 x float], ptr %24, i64 1
  %26 = getelementptr inbounds [3 x float], ptr %25, i64 0, i64 0
  store float 0.000000e+00, ptr %26, align 4, !tbaa !68
  br label %27

27:                                               ; preds = %23, %9
  %28 = load i32, ptr %4, align 4, !tbaa !4
  %29 = icmp slt i32 2, %28
  br i1 %29, label %30, label %66

30:                                               ; preds = %27
  %31 = load ptr, ptr %5, align 8, !tbaa !66
  %32 = getelementptr inbounds [3 x float], ptr %31, i64 2
  %33 = getelementptr inbounds [3 x float], ptr %32, i64 0, i64 1
  %34 = load float, ptr %33, align 4, !tbaa !68
  %35 = load ptr, ptr %6, align 8, !tbaa !66
  %36 = getelementptr inbounds [3 x float], ptr %35, i64 1
  %37 = getelementptr inbounds [3 x float], ptr %36, i64 0, i64 0
  %38 = load float, ptr %37, align 4, !tbaa !68
  %39 = load ptr, ptr %5, align 8, !tbaa !66
  %40 = getelementptr inbounds [3 x float], ptr %39, i64 2
  %41 = getelementptr inbounds [3 x float], ptr %40, i64 0, i64 0
  %42 = load float, ptr %41, align 4, !tbaa !68
  %43 = call float @llvm.fmuladd.f32(float %34, float %38, float %42)
  %44 = fneg float %43
  %45 = load ptr, ptr %5, align 8, !tbaa !66
  %46 = getelementptr inbounds [3 x float], ptr %45, i64 2
  %47 = getelementptr inbounds [3 x float], ptr %46, i64 0, i64 2
  %48 = load float, ptr %47, align 4, !tbaa !68
  %49 = fdiv float %44, %48
  %50 = load ptr, ptr %6, align 8, !tbaa !66
  %51 = getelementptr inbounds [3 x float], ptr %50, i64 2
  %52 = getelementptr inbounds [3 x float], ptr %51, i64 0, i64 0
  store float %49, ptr %52, align 4, !tbaa !68
  %53 = load ptr, ptr %5, align 8, !tbaa !66
  %54 = getelementptr inbounds [3 x float], ptr %53, i64 2
  %55 = getelementptr inbounds [3 x float], ptr %54, i64 0, i64 1
  %56 = load float, ptr %55, align 4, !tbaa !68
  %57 = fneg float %56
  %58 = load ptr, ptr %5, align 8, !tbaa !66
  %59 = getelementptr inbounds [3 x float], ptr %58, i64 2
  %60 = getelementptr inbounds [3 x float], ptr %59, i64 0, i64 2
  %61 = load float, ptr %60, align 4, !tbaa !68
  %62 = fdiv float %57, %61
  %63 = load ptr, ptr %6, align 8, !tbaa !66
  %64 = getelementptr inbounds [3 x float], ptr %63, i64 2
  %65 = getelementptr inbounds [3 x float], ptr %64, i64 0, i64 1
  store float %62, ptr %65, align 4, !tbaa !68
  br label %73

66:                                               ; preds = %27
  %67 = load ptr, ptr %6, align 8, !tbaa !66
  %68 = getelementptr inbounds [3 x float], ptr %67, i64 2
  %69 = getelementptr inbounds [3 x float], ptr %68, i64 0, i64 0
  store float 0.000000e+00, ptr %69, align 4, !tbaa !68
  %70 = load ptr, ptr %6, align 8, !tbaa !66
  %71 = getelementptr inbounds [3 x float], ptr %70, i64 2
  %72 = getelementptr inbounds [3 x float], ptr %71, i64 0, i64 1
  store float 0.000000e+00, ptr %72, align 4, !tbaa !68
  br label %73

73:                                               ; preds = %66, %30
  ret void
}