; Function Attrs: mustprogress nofree norecurse nosync nounwind willreturn memory(argmem: readwrite) uwtable
define void @_Z21make_tric_corr_matrixiPA3_KfPA3_f(i32 noundef %0, ptr noundef readonly captures(none) %1, ptr noundef writeonly captures(none) initializes((12, 16), (24, 32)) %2) local_unnamed_addr #9 {
  %4 = icmp sgt i32 %0, 1
  br i1 %4, label %6, label %.thread

.thread:                                          ; preds = %3
  %5 = getelementptr inbounds nuw i8, ptr %2, i64 12
  store float 0.000000e+00, ptr %5, align 4, !tbaa !18
  br label %29

6:                                                ; preds = %3
  %7 = getelementptr inbounds nuw i8, ptr %1, i64 12
  %8 = load float, ptr %7, align 4, !tbaa !18
  %9 = fneg float %8
  %10 = getelementptr inbounds nuw i8, ptr %1, i64 16
  %11 = load float, ptr %10, align 4, !tbaa !18
  %12 = fdiv float %9, %11
  %13 = getelementptr inbounds nuw i8, ptr %2, i64 12
  store float %12, ptr %13, align 4, !tbaa !18
  %.not = icmp eq i32 %0, 2
  br i1 %.not, label %29, label %14

14:                                               ; preds = %6
  %15 = getelementptr inbounds nuw i8, ptr %1, i64 24
  %16 = getelementptr inbounds nuw i8, ptr %1, i64 28
  %17 = load float, ptr %16, align 4, !tbaa !18
  %18 = load float, ptr %15, align 4, !tbaa !18
  %19 = tail call float @llvm.fmuladd.f32(float %17, float %12, float %18)
  %20 = fneg float %19
  %21 = getelementptr inbounds nuw i8, ptr %1, i64 32
  %22 = load float, ptr %21, align 4, !tbaa !18
  %23 = fdiv float %20, %22
  %24 = getelementptr inbounds nuw i8, ptr %2, i64 24
  store float %23, ptr %24, align 4, !tbaa !18
  %25 = load float, ptr %16, align 4, !tbaa !18
  %26 = fneg float %25
  %27 = load float, ptr %21, align 4, !tbaa !18
  %28 = fdiv float %26, %27
  br label %31

29:                                               ; preds = %.thread, %6
  %30 = getelementptr inbounds nuw i8, ptr %2, i64 24
  store float 0.000000e+00, ptr %30, align 4, !tbaa !18
  br label %31

31:                                               ; preds = %29, %14
  %.sink = phi float [ 0.000000e+00, %29 ], [ %28, %14 ]
  %32 = getelementptr inbounds nuw i8, ptr %2, i64 28
  store float %.sink, ptr %32, align 4, !tbaa !18
  ret void
}